target datalayout = "e-m:e-p270:32:32-p271:32:32-p272:64:64-i64:64-i128:128-f80:128-n8:16:32:64-S128"
target triple = "x86_64-pc-linux-gnu"

%"struct.Type::TypeInfo" = type { i32, i8, ptr, i8, i32, i32 }
%class.VLoop = type { ptr, ptr, i8, ptr, ptr, ptr, ptr }
%class.Node = type <{ ptr, ptr, ptr, i32, i32, i32, i32, i32, i32, i32, [4 x i8] }>
%class.VPointer = type { ptr, ptr, ptr, ptr, i32, i32, ptr, ptr, i8, i32 }
%class.Node_Stack = type { ptr, ptr, ptr, ptr }
%"struct.Node_Stack::INode" = type { ptr, i32 }
%class.Type = type <{ ptr, ptr, i32, [4 x i8] }>

@_ZN4Type10_type_infoE = external global [0 x %"struct.Type::TypeInfo"], align 8
@_ZN8VPointerC1EPS_ = hidden unnamed_addr alias void (ptr, ptr), ptr @_ZN8VPointerC2EPS_

; Function Attrs: mustprogress nounwind uwtable
define linkonce_odr hidden noundef ptr @_ZNK5VLoop2ivEv(ptr noundef nonnull align 8 dereferenceable(56) %0) #1 comdat align 2 {
  %2 = alloca ptr, align 8
  store ptr %0, ptr %2, align 8
  %3 = load ptr, ptr %2, align 8
  %4 = getelementptr inbounds %class.VLoop, ptr %3, i32 0, i32 5
  %5 = load ptr, ptr %4, align 8
  ret ptr %5
}

; Function Attrs: mustprogress nounwind uwtable
define linkonce_odr hidden noundef zeroext i8 @_ZNK4Type10basic_typeEv(ptr noundef nonnull align 8 dereferenceable(20) %0) #1 comdat align 2 {
  %2 = alloca ptr, align 8
  store ptr %0, ptr %2, align 8
  %3 = load ptr, ptr %2, align 8
  %4 = getelementptr inbounds %class.Type, ptr %3, i32 0, i32 2
  %5 = load i32, ptr %4, align 8
  %6 = zext i32 %5 to i64
  %7 = getelementptr inbounds [0 x %"struct.Type::TypeInfo"], ptr @_ZN4Type10_type_infoE, i64 0, i64 %6
  %8 = getelementptr inbounds %"struct.Type::TypeInfo", ptr %7, i32 0, i32 1
  %9 = load i8, ptr %8, align 4
  ret i8 %9
}

; Function Attrs: mustprogress nounwind uwtable
define linkonce_odr hidden noundef zeroext i1 @_ZNK8VPointer6has_ivEv(ptr noundef nonnull align 8 dereferenceable(64) %0) #1 comdat align 2 {
  %2 = alloca ptr, align 8
  store ptr %0, ptr %2, align 8
  %3 = load ptr, ptr %2, align 8
  %4 = getelementptr inbounds %class.VPointer, ptr %3, i32 0, i32 4
  %5 = load i32, ptr %4, align 8
  %6 = icmp ne i32 %5, 0
  ret i1 %6
}

; Function Attrs: mustprogress nounwind uwtable
define linkonce_odr hidden noundef zeroext i1 @_ZNK4Node6is_ConEv(ptr noundef nonnull align 8 dereferenceable(52) %0) #1 comdat align 2 {
  %2 = alloca ptr, align 8
  store ptr %0, ptr %2, align 8
  %3 = load ptr, ptr %2, align 8
  %4 = getelementptr inbounds %class.Node, ptr %3, i32 0, i32 9
  %5 = load i32, ptr %4, align 8
  %6 = and i32 %5, 16
  %7 = icmp ne i32 %6, 0
  ret i1 %7
}

; Function Attrs: mustprogress nounwind uwtable
define linkonce_odr hidden noundef ptr @_ZNK4Node2inEj(ptr noundef nonnull align 8 dereferenceable(52) %0, i32 noundef %1) #1 comdat align 2 {
  %3 = alloca ptr, align 8
  %4 = alloca i32, align 4
  store ptr %0, ptr %3, align 8
  store i32 %1, ptr %4, align 4
  %5 = load ptr, ptr %3, align 8
  %6 = getelementptr inbounds %class.Node, ptr %5, i32 0, i32 1
  %7 = load ptr, ptr %6, align 8
  %8 = load i32, ptr %4, align 4
  %9 = zext i32 %8 to i64
  %10 = getelementptr inbounds ptr, ptr %7, i64 %9
  %11 = load ptr, ptr %10, align 8
  ret ptr %11
}

; Function Attrs: mustprogress nounwind uwtable
define linkonce_odr hidden void @_ZN10Node_Stack4pushEP4Nodej(ptr noundef nonnull align 8 dereferenceable(32) %0, ptr noundef %1, i32 noundef %2) #1 comdat align 2 {
  %4 = alloca ptr, align 8
  %5 = alloca ptr, align 8
  %6 = alloca i32, align 4
  %7 = alloca ptr, align 8
  store ptr %0, ptr %4, align 8
  store ptr %1, ptr %5, align 8
  store i32 %2, ptr %6, align 4
  %8 = load ptr, ptr %4, align 8
  %9 = getelementptr inbounds %class.Node_Stack, ptr %8, i32 0, i32 0
  %10 = load ptr, ptr %9, align 8
  %11 = getelementptr inbounds %"struct.Node_Stack::INode", ptr %10, i32 1
  store ptr %11, ptr %9, align 8
  %12 = getelementptr inbounds %class.Node_Stack, ptr %8, i32 0, i32 0
  %13 = load ptr, ptr %12, align 8
  %14 = getelementptr inbounds %class.Node_Stack, ptr %8, i32 0, i32 1
  %15 = load ptr, ptr %14, align 8
  %16 = icmp uge ptr %13, %15
  br i1 %16, label %17, label %18

17:                                               ; preds = %3
  call void @_ZN10Node_Stack4growEv(ptr noundef nonnull align 8 dereferenceable(32) %8)
  br label %18

18:                                               ; preds = %17, %3
  %19 = getelementptr inbounds %class.Node_Stack, ptr %8, i32 0, i32 0
  %20 = load ptr, ptr %19, align 8
  store ptr %20, ptr %7, align 8
  %21 = load ptr, ptr %5, align 8
  %22 = load ptr, ptr %7, align 8
  %23 = getelementptr inbounds %"struct.Node_Stack::INode", ptr %22, i32 0, i32 0
  store ptr %21, ptr %23, align 8
  %24 = load i32, ptr %6, align 4
  %25 = load ptr, ptr %7, align 8
  %26 = getelementptr inbounds %"struct.Node_Stack::INode", ptr %25, i32 0, i32 1
  store i32 %24, ptr %26, align 8
  ret void
}

; Function Attrs: mustprogress nounwind uwtable
define linkonce_odr hidden noundef ptr @_ZNK8VPointer2ivEv(ptr noundef nonnull align 8 dereferenceable(64) %0) #1 comdat align 2 {
  %2 = alloca ptr, align 8
  store ptr %0, ptr %2, align 8
  %3 = load ptr, ptr %2, align 8
  %4 = getelementptr inbounds %class.VPointer, ptr %3, i32 0, i32 1
  %5 = load ptr, ptr %4, align 8
  %6 = call noundef ptr @_ZNK5VLoop2ivEv(ptr noundef nonnull align 8 dereferenceable(56) %5)
  ret ptr %6
}

; Function Attrs: mustprogress nounwind uwtable
define hidden noundef zeroext i1 @_ZN8VPointer9scaled_ivEP4Node(ptr noundef nonnull align 8 dereferenceable(64) %0, ptr noundef %1) #1 align 2 {
  %3 = alloca i1, align 1
  %4 = alloca ptr, align 8
  %5 = alloca ptr, align 8
  %6 = alloca i32, align 4
  %7 = alloca %class.VPointer, align 8
  %8 = alloca i32, align 4
  %9 = alloca i8, align 1
  store ptr %0, ptr %4, align 8
  store ptr %1, ptr %5, align 8
  %10 = load ptr, ptr %4, align 8
  %11 = getelementptr inbounds %class.VPointer, ptr %10, i32 0, i32 4
  %12 = load i32, ptr %11, align 8
  %13 = icmp ne i32 %12, 0
  br i1 %13, label %14, label %15

14:                                               ; preds = %2
  store i1 false, ptr %3, align 1
  br label %158

15:                                               ; preds = %2
  %16 = load ptr, ptr %5, align 8
  %17 = call noundef ptr @_ZNK8VPointer2ivEv(ptr noundef nonnull align 8 dereferenceable(64) %10)
  %18 = icmp eq ptr %16, %17
  br i1 %18, label %19, label %21

19:                                               ; preds = %15
  %20 = getelementptr inbounds %class.VPointer, ptr %10, i32 0, i32 4
  store i32 1, ptr %20, align 8
  store i1 true, ptr %3, align 1
  br label %158

21:                                               ; preds = %15
  %22 = getelementptr inbounds %class.VPointer, ptr %10, i32 0, i32 8
  %23 = load i8, ptr %22, align 8
  %24 = trunc i8 %23 to i1
  br i1 %24, label %25, label %35

25:                                               ; preds = %21
  %26 = load ptr, ptr %5, align 8
  %27 = call noundef zeroext i1 @_ZNK8VPointer14is_loop_memberEP4Node(ptr noundef nonnull align 8 dereferenceable(64) %10, ptr noundef %26)
  br i1 %27, label %28, label %35

28:                                               ; preds = %25
  %29 = getelementptr inbounds %class.VPointer, ptr %10, i32 0, i32 7
  %30 = load ptr, ptr %29, align 8
  %31 = load ptr, ptr %5, align 8
  %32 = getelementptr inbounds %class.VPointer, ptr %10, i32 0, i32 9
  %33 = load i32, ptr %32, align 4
  %34 = add i32 %33, 1
  store i32 %34, ptr %32, align 4
  call void @_ZN10Node_Stack4pushEP4Nodej(ptr noundef nonnull align 8 dereferenceable(32) %30, ptr noundef %31, i32 noundef %33)
  br label %35

35:                                               ; preds = %28, %25, %21
  %36 = load ptr, ptr %5, align 8
  %37 = load ptr, ptr %36, align 8
  %38 = getelementptr inbounds ptr, ptr %37, i64 0
  %39 = load ptr, ptr %38, align 8
  %40 = call noundef i32 %39(ptr noundef nonnull align 8 dereferenceable(52) %36)
  store i32 %40, ptr %6, align 4
  %41 = load i32, ptr %6, align 4
  %42 = icmp eq i32 %41, 246
  br i1 %42, label %43, label %73

43:                                               ; preds = %35
  %44 = load ptr, ptr %5, align 8
  %45 = call noundef ptr @_ZNK4Node2inEj(ptr noundef nonnull align 8 dereferenceable(52) %44, i32 noundef 1)
  %46 = call noundef ptr @_ZNK8VPointer2ivEv(ptr noundef nonnull align 8 dereferenceable(64) %10)
  %47 = icmp eq ptr %45, %46
  br i1 %47, label %48, label %57

48:                                               ; preds = %43
  %49 = load ptr, ptr %5, align 8
  %50 = call noundef ptr @_ZNK4Node2inEj(ptr noundef nonnull align 8 dereferenceable(52) %49, i32 noundef 2)
  %51 = call noundef zeroext i1 @_ZNK4Node6is_ConEv(ptr noundef nonnull align 8 dereferenceable(52) %50)
  br i1 %51, label %52, label %57

52:                                               ; preds = %48
  %53 = load ptr, ptr %5, align 8
  %54 = call noundef ptr @_ZNK4Node2inEj(ptr noundef nonnull align 8 dereferenceable(52) %53, i32 noundef 2)
  %55 = call noundef i32 @_ZNK4Node7get_intEv(ptr noundef nonnull align 8 dereferenceable(52) %54)
  %56 = getelementptr inbounds %class.VPointer, ptr %10, i32 0, i32 4
  store i32 %55, ptr %56, align 8
  store i1 true, ptr %3, align 1
  br label %158

57:                                               ; preds = %48, %43
  %58 = load ptr, ptr %5, align 8
  %59 = call noundef ptr @_ZNK4Node2inEj(ptr noundef nonnull align 8 dereferenceable(52) %58, i32 noundef 2)
  %60 = call noundef ptr @_ZNK8VPointer2ivEv(ptr noundef nonnull align 8 dereferenceable(64) %10)
  %61 = icmp eq ptr %59, %60
  br i1 %61, label %62, label %71

62:                                               ; preds = %57
  %63 = load ptr, ptr %5, align 8
  %64 = call noundef ptr @_ZNK4Node2inEj(ptr noundef nonnull align 8 dereferenceable(52) %63, i32 noundef 1)
  %65 = call noundef zeroext i1 @_ZNK4Node6is_ConEv(ptr noundef nonnull align 8 dereferenceable(52) %64)
  br i1 %65, label %66, label %71

66:                                               ; preds = %62
  %67 = load ptr, ptr %5, align 8
  %68 = call noundef ptr @_ZNK4Node2inEj(ptr noundef nonnull align 8 dereferenceable(52) %67, i32 noundef 1)
  %69 = call noundef i32 @_ZNK4Node7get_intEv(ptr noundef nonnull align 8 dereferenceable(52) %68)
  %70 = getelementptr inbounds %class.VPointer, ptr %10, i32 0, i32 4
  store i32 %69, ptr %70, align 8
  store i1 true, ptr %3, align 1
  br label %158

71:                                               ; preds = %62, %57
  br label %72

72:                                               ; preds = %71
  br label %157

73:                                               ; preds = %35
  %74 = load i32, ptr %6, align 4
  %75 = icmp eq i32 %74, 185
  br i1 %75, label %76, label %92

76:                                               ; preds = %73
  %77 = load ptr, ptr %5, align 8
  %78 = call noundef ptr @_ZNK4Node2inEj(ptr noundef nonnull align 8 dereferenceable(52) %77, i32 noundef 1)
  %79 = call noundef ptr @_ZNK8VPointer2ivEv(ptr noundef nonnull align 8 dereferenceable(64) %10)
  %80 = icmp eq ptr %78, %79
  br i1 %80, label %81, label %91

81:                                               ; preds = %76
  %82 = load ptr, ptr %5, align 8
  %83 = call noundef ptr @_ZNK4Node2inEj(ptr noundef nonnull align 8 dereferenceable(52) %82, i32 noundef 2)
  %84 = call noundef zeroext i1 @_ZNK4Node6is_ConEv(ptr noundef nonnull align 8 dereferenceable(52) %83)
  br i1 %84, label %85, label %91

85:                                               ; preds = %81
  %86 = load ptr, ptr %5, align 8
  %87 = call noundef ptr @_ZNK4Node2inEj(ptr noundef nonnull align 8 dereferenceable(52) %86, i32 noundef 2)
  %88 = call noundef i32 @_ZNK4Node7get_intEv(ptr noundef nonnull align 8 dereferenceable(52) %87)
  %89 = shl i32 1, %88
  %90 = getelementptr inbounds %class.VPointer, ptr %10, i32 0, i32 4
  store i32 %89, ptr %90, align 8
  store i1 true, ptr %3, align 1
  br label %158

91:                                               ; preds = %81, %76
  br label %156

92:                                               ; preds = %73
  %93 = load i32, ptr %6, align 4
  %94 = icmp eq i32 %93, 135
  br i1 %94, label %98, label %95

95:                                               ; preds = %92
  %96 = load i32, ptr %6, align 4
  %97 = icmp eq i32 %96, 55
  br i1 %97, label %98, label %104

98:                                               ; preds = %95, %92
  %99 = load ptr, ptr %5, align 8
  %100 = call noundef ptr @_ZNK4Node2inEj(ptr noundef nonnull align 8 dereferenceable(52) %99, i32 noundef 1)
  %101 = call noundef zeroext i1 @_ZN8VPointer21scaled_iv_plus_offsetEP4Node(ptr noundef nonnull align 8 dereferenceable(64) %10, ptr noundef %100)
  br i1 %101, label %102, label %103

102:                                              ; preds = %98
  store i1 true, ptr %3, align 1
  br label %158

103:                                              ; preds = %98
  br label %155

104:                                              ; preds = %95
  %105 = load i32, ptr %6, align 4
  %106 = icmp eq i32 %105, 186
  br i1 %106, label %107, label %154

107:                                              ; preds = %104
  %108 = load ptr, ptr %5, align 8
  %109 = call noundef ptr @_ZNK4Node2inEj(ptr noundef nonnull align 8 dereferenceable(52) %108, i32 noundef 2)
  %110 = call noundef zeroext i1 @_ZNK4Node6is_ConEv(ptr noundef nonnull align 8 dereferenceable(52) %109)
  br i1 %110, label %111, label %154

111:                                              ; preds = %107
  %112 = call noundef zeroext i1 @_ZNK8VPointer6has_ivEv(ptr noundef nonnull align 8 dereferenceable(64) %10)
  br i1 %112, label %153, label %113

113:                                              ; preds = %111
  call void @_ZN8VPointerC1EPS_(ptr noundef nonnull align 8 dereferenceable(64) %7, ptr noundef %10)
  %114 = load ptr, ptr %5, align 8
  %115 = call noundef ptr @_ZNK4Node2inEj(ptr noundef nonnull align 8 dereferenceable(52) %114, i32 noundef 1)
  %116 = call noundef zeroext i1 @_ZN8VPointer21scaled_iv_plus_offsetEP4Node(ptr noundef nonnull align 8 dereferenceable(64) %7, ptr noundef %115)
  br i1 %116, label %117, label %152

117:                                              ; preds = %113
  %118 = load ptr, ptr %5, align 8
  %119 = call noundef ptr @_ZNK4Node2inEj(ptr noundef nonnull align 8 dereferenceable(52) %118, i32 noundef 2)
  %120 = call noundef i32 @_ZNK4Node7get_intEv(ptr noundef nonnull align 8 dereferenceable(52) %119)
  store i32 %120, ptr %8, align 4
  %121 = getelementptr inbounds %class.VPointer, ptr %7, i32 0, i32 4
  %122 = load i32, ptr %121, align 8
  %123 = load i32, ptr %8, align 4
  %124 = shl i32 %122, %123
  %125 = getelementptr inbounds %class.VPointer, ptr %10, i32 0, i32 4
  store i32 %124, ptr %125, align 8
  %126 = getelementptr inbounds %class.VPointer, ptr %7, i32 0, i32 5
  %127 = load i32, ptr %126, align 4
  %128 = load i32, ptr %8, align 4
  %129 = shl i32 %127, %128
  %130 = getelementptr inbounds %class.VPointer, ptr %10, i32 0, i32 5
  %131 = load i32, ptr %130, align 4
  %132 = add nsw i32 %131, %129
  store i32 %132, ptr %130, align 4
  %133 = getelementptr inbounds %class.VPointer, ptr %7, i32 0, i32 6
  %134 = load ptr, ptr %133, align 8
  %135 = icmp ne ptr %134, null
  br i1 %135, label %136, label %151

136:                                              ; preds = %117
  %137 = getelementptr inbounds %class.VPointer, ptr %7, i32 0, i32 6
  %138 = load ptr, ptr %137, align 8
  %139 = load ptr, ptr %138, align 8
  %140 = getelementptr inbounds ptr, ptr %139, i64 5
  %141 = load ptr, ptr %140, align 8
  %142 = call noundef ptr %141(ptr noundef nonnull align 8 dereferenceable(52) %138)
  %143 = call noundef zeroext i8 @_ZNK4Type10basic_typeEv(ptr noundef nonnull align 8 dereferenceable(20) %142)
  store i8 %143, ptr %9, align 1
  %144 = getelementptr inbounds %class.VPointer, ptr %7, i32 0, i32 6
  %145 = load ptr, ptr %144, align 8
  %146 = load ptr, ptr %5, align 8
  %147 = call noundef ptr @_ZNK4Node2inEj(ptr noundef nonnull align 8 dereferenceable(52) %146, i32 noundef 2)
  %148 = load i8, ptr %9, align 1
  %149 = call noundef ptr @_ZN10LShiftNode4makeEP4NodeS1_9BasicType(ptr noundef %145, ptr noundef %147, i8 noundef zeroext %148)
  %150 = call noundef ptr @_ZNK8VPointer15register_if_newEP4Node(ptr noundef nonnull align 8 dereferenceable(64) %10, ptr noundef %149)
  call void @_ZN8VPointer18maybe_add_to_invarEP4Nodeb(ptr noundef nonnull align 8 dereferenceable(64) %10, ptr noundef %150, i1 noundef zeroext false)
  br label %151

151:                                              ; preds = %136, %117
  store i1 true, ptr %3, align 1
  br label %158

152:                                              ; preds = %113
  br label %153

153:                                              ; preds = %152, %111
  br label %154

154:                                              ; preds = %153, %107, %104
  br label %155

155:                                              ; preds = %154, %103
  br label %156

156:                                              ; preds = %155, %91
  br label %157

157:                                              ; preds = %156, %72
  store i1 false, ptr %3, align 1
  br label %158

158:                                              ; preds = %157, %151, %102, %85, %66, %52, %19, %14
  %159 = load i1, ptr %3, align 1
  ret i1 %159
}