; Function Attrs: mustprogress nounwind uwtable
define hidden noundef zeroext i1 @_ZN8VPointer9scaled_ivEP4Node(ptr nocapture noundef nonnull align 8 dereferenceable(64) %0, ptr noundef %1) local_unnamed_addr #0 align 2 {
  %3 = alloca %class.VPointer, align 16
  %4 = getelementptr inbounds i8, ptr %0, i64 32
  %5 = load i32, ptr %4, align 8
  %.not = icmp eq i32 %5, 0
  br i1 %.not, label %6, label %142

6:                                                ; preds = %2
  %7 = getelementptr inbounds i8, ptr %0, i64 8
  %8 = load ptr, ptr %7, align 8
  %9 = getelementptr inbounds i8, ptr %8, i64 40
  %10 = load ptr, ptr %9, align 8
  %11 = icmp eq ptr %10, %1
  br i1 %11, label %12, label %13

12:                                               ; preds = %6
  store i32 1, ptr %4, align 8
  br label %142

13:                                               ; preds = %6
  %14 = getelementptr inbounds i8, ptr %0, i64 56
  %15 = load i8, ptr %14, align 8
  %16 = trunc i8 %15 to i1
  br i1 %16, label %17, label %32

17:                                               ; preds = %13
  %18 = tail call noundef zeroext i1 @_ZNK8VPointer14is_loop_memberEP4Node(ptr noundef nonnull align 8 dereferenceable(64) %0, ptr noundef %1)
  br i1 %18, label %19, label %32

19:                                               ; preds = %17
  %20 = getelementptr inbounds i8, ptr %0, i64 48
  %21 = load ptr, ptr %20, align 8
  %22 = getelementptr inbounds i8, ptr %0, i64 60
  %23 = load i32, ptr %22, align 4
  %24 = add i32 %23, 1
  store i32 %24, ptr %22, align 4
  %25 = load ptr, ptr %21, align 8
  %26 = getelementptr inbounds i8, ptr %25, i64 16
  store ptr %26, ptr %21, align 8
  %27 = getelementptr inbounds i8, ptr %21, i64 8
  %28 = load ptr, ptr %27, align 8
  %.not.i = icmp ult ptr %26, %28
  br i1 %.not.i, label %_ZN10Node_Stack4pushEP4Nodej.exit, label %29

29:                                               ; preds = %19
  tail call void @_ZN10Node_Stack4growEv(ptr noundef nonnull align 8 dereferenceable(32) %21) #13
  %.pre.i = load ptr, ptr %21, align 8
  br label %_ZN10Node_Stack4pushEP4Nodej.exit

_ZN10Node_Stack4pushEP4Nodej.exit:                ; preds = %19, %29
  %30 = phi ptr [ %.pre.i, %29 ], [ %26, %19 ]
  store ptr %1, ptr %30, align 8
  %31 = getelementptr inbounds i8, ptr %30, i64 8
  store i32 %23, ptr %31, align 8
  br label %32

32:                                               ; preds = %_ZN10Node_Stack4pushEP4Nodej.exit, %17, %13
  %33 = load ptr, ptr %1, align 8
  %34 = load ptr, ptr %33, align 8
  %35 = tail call noundef i32 %34(ptr noundef nonnull align 8 dereferenceable(52) %1) #13
  switch i32 %35, label %141 [
    i32 246, label %36
    i32 185, label %60
    i32 135, label %78
    i32 55, label %78
    i32 186, label %84
  ]

36:                                               ; preds = %32
  %37 = getelementptr inbounds i8, ptr %1, i64 8
  %38 = load ptr, ptr %37, align 8
  %39 = getelementptr inbounds i8, ptr %38, i64 8
  %40 = load ptr, ptr %39, align 8
  %41 = load ptr, ptr %7, align 8
  %42 = getelementptr inbounds i8, ptr %41, i64 40
  %43 = load ptr, ptr %42, align 8
  %44 = icmp eq ptr %40, %43
  %45 = getelementptr inbounds i8, ptr %38, i64 16
  %46 = load ptr, ptr %45, align 8
  br i1 %44, label %47, label %._crit_edge

47:                                               ; preds = %36
  %48 = getelementptr inbounds i8, ptr %46, i64 48
  %49 = load i32, ptr %48, align 8
  %50 = and i32 %49, 16
  %.not34 = icmp eq i32 %50, 0
  br i1 %.not34, label %._crit_edge, label %51

51:                                               ; preds = %47
  %52 = tail call noundef i32 @_ZNK4Node7get_intEv(ptr noundef nonnull align 8 dereferenceable(52) %46)
  store i32 %52, ptr %4, align 8
  br label %142

._crit_edge:                                      ; preds = %36, %47
  %53 = icmp eq ptr %46, %43
  br i1 %53, label %54, label %141

54:                                               ; preds = %._crit_edge
  %55 = getelementptr inbounds i8, ptr %40, i64 48
  %56 = load i32, ptr %55, align 8
  %57 = and i32 %56, 16
  %.not35 = icmp eq i32 %57, 0
  br i1 %.not35, label %141, label %58

58:                                               ; preds = %54
  %59 = tail call noundef i32 @_ZNK4Node7get_intEv(ptr noundef nonnull align 8 dereferenceable(52) %40)
  store i32 %59, ptr %4, align 8
  br label %142

60:                                               ; preds = %32
  %61 = getelementptr inbounds i8, ptr %1, i64 8
  %62 = load ptr, ptr %61, align 8
  %63 = getelementptr inbounds i8, ptr %62, i64 8
  %64 = load ptr, ptr %63, align 8
  %65 = load ptr, ptr %7, align 8
  %66 = getelementptr inbounds i8, ptr %65, i64 40
  %67 = load ptr, ptr %66, align 8
  %68 = icmp eq ptr %64, %67
  br i1 %68, label %69, label %141

69:                                               ; preds = %60
  %70 = getelementptr inbounds i8, ptr %62, i64 16
  %71 = load ptr, ptr %70, align 8
  %72 = getelementptr inbounds i8, ptr %71, i64 48
  %73 = load i32, ptr %72, align 8
  %74 = and i32 %73, 16
  %.not33 = icmp eq i32 %74, 0
  br i1 %.not33, label %141, label %75

75:                                               ; preds = %69
  %76 = tail call noundef i32 @_ZNK4Node7get_intEv(ptr noundef nonnull align 8 dereferenceable(52) %71)
  %77 = shl nuw i32 1, %76
  store i32 %77, ptr %4, align 8
  br label %142

78:                                               ; preds = %32, %32
  %79 = getelementptr inbounds i8, ptr %1, i64 8
  %80 = load ptr, ptr %79, align 8
  %81 = getelementptr inbounds i8, ptr %80, i64 8
  %82 = load ptr, ptr %81, align 8
  %83 = tail call noundef zeroext i1 @_ZN8VPointer21scaled_iv_plus_offsetEP4Node(ptr noundef nonnull align 8 dereferenceable(64) %0, ptr noundef %82)
  br i1 %83, label %142, label %141

84:                                               ; preds = %32
  %85 = getelementptr inbounds i8, ptr %1, i64 8
  %86 = load ptr, ptr %85, align 8
  %87 = getelementptr inbounds i8, ptr %86, i64 16
  %88 = load ptr, ptr %87, align 8
  %89 = getelementptr inbounds i8, ptr %88, i64 48
  %90 = load i32, ptr %89, align 8
  %91 = and i32 %90, 16
  %92 = icmp eq i32 %91, 0
  %93 = load i32, ptr %4, align 8
  %94 = icmp ne i32 %93, 0
  %or.cond = select i1 %92, i1 true, i1 %94
  br i1 %or.cond, label %141, label %95

95:                                               ; preds = %84
  %96 = load <2 x ptr>, ptr %0, align 8
  store <2 x ptr> %96, ptr %3, align 16
  %97 = getelementptr inbounds i8, ptr %3, i64 16
  %98 = getelementptr inbounds i8, ptr %3, i64 48
  %99 = getelementptr inbounds i8, ptr %0, i64 48
  call void @llvm.memset.p0.i64(ptr noundef nonnull align 16 dereferenceable(32) %97, i8 0, i64 32, i1 false)
  %100 = load ptr, ptr %99, align 8
  store ptr %100, ptr %98, align 16
  %101 = getelementptr inbounds i8, ptr %3, i64 56
  %102 = load i8, ptr %14, align 8
  %103 = and i8 %102, 1
  store i8 %103, ptr %101, align 8
  %104 = getelementptr inbounds i8, ptr %3, i64 60
  %105 = getelementptr inbounds i8, ptr %0, i64 60
  %106 = load i32, ptr %105, align 4
  store i32 %106, ptr %104, align 4
  %107 = getelementptr inbounds i8, ptr %86, i64 8
  %108 = load ptr, ptr %107, align 8
  %109 = call noundef zeroext i1 @_ZN8VPointer21scaled_iv_plus_offsetEP4Node(ptr noundef nonnull align 8 dereferenceable(64) %3, ptr noundef %108)
  br i1 %109, label %110, label %141

110:                                              ; preds = %95
  %111 = load ptr, ptr %85, align 8
  %112 = getelementptr inbounds i8, ptr %111, i64 16
  %113 = load ptr, ptr %112, align 8
  %114 = tail call noundef i32 @_ZNK4Node7get_intEv(ptr noundef nonnull align 8 dereferenceable(52) %113)
  %115 = getelementptr inbounds i8, ptr %3, i64 32
  %116 = load i32, ptr %115, align 16
  %117 = shl i32 %116, %114
  store i32 %117, ptr %4, align 8
  %118 = getelementptr inbounds i8, ptr %3, i64 36
  %119 = load i32, ptr %118, align 4
  %120 = shl i32 %119, %114
  %121 = getelementptr inbounds i8, ptr %0, i64 36
  %122 = load i32, ptr %121, align 4
  %123 = add nsw i32 %122, %120
  store i32 %123, ptr %121, align 4
  %124 = getelementptr inbounds i8, ptr %3, i64 40
  %125 = load ptr, ptr %124, align 8
  %.not31 = icmp eq ptr %125, null
  br i1 %.not31, label %142, label %126

126:                                              ; preds = %110
  %127 = load ptr, ptr %125, align 8
  %128 = getelementptr inbounds i8, ptr %127, i64 40
  %129 = load ptr, ptr %128, align 8
  %130 = tail call noundef ptr %129(ptr noundef nonnull align 8 dereferenceable(52) %125) #13
  %131 = getelementptr inbounds i8, ptr %130, i64 16
  %132 = load i32, ptr %131, align 8
  %133 = zext i32 %132 to i64
  %134 = getelementptr inbounds [0 x %"struct.Type::TypeInfo"], ptr @_ZN4Type10_type_infoE, i64 0, i64 %133, i32 1
  %135 = load i8, ptr %134, align 4
  %136 = load ptr, ptr %85, align 8
  %137 = getelementptr inbounds i8, ptr %136, i64 16
  %138 = load ptr, ptr %137, align 8
  %139 = tail call noundef ptr @_ZN10LShiftNode4makeEP4NodeS1_9BasicType(ptr noundef nonnull %125, ptr noundef %138, i8 noundef zeroext %135) #13
  %140 = tail call noundef ptr @_ZNK8VPointer15register_if_newEP4Node(ptr noundef nonnull align 8 dereferenceable(64) %0, ptr noundef %139)
  tail call void @_ZN8VPointer18maybe_add_to_invarEP4Nodeb(ptr noundef nonnull align 8 dereferenceable(64) %0, ptr noundef %140, i1 noundef zeroext false)
  br label %142

141:                                              ; preds = %32, %69, %60, %84, %95, %78, %54, %._crit_edge
  br label %142

142:                                              ; preds = %110, %126, %78, %2, %141, %75, %58, %51, %12
  %.0 = phi i1 [ true, %12 ], [ true, %51 ], [ true, %58 ], [ false, %141 ], [ true, %75 ], [ false, %2 ], [ true, %78 ], [ true, %126 ], [ true, %110 ]
  ret i1 %.0
}